target datalayout = "e-m:e-p270:32:32-p271:32:32-p272:64:64-i64:64-i128:128-f80:128-n8:16:32:64-S128"
target triple = "x86_64-pc-linux-gnu"

%class.MutableNUMASpace = type { %class.MutableSpace, ptr, i64, i32, i32, i8, i64 }
%class.MutableSpace = type { ptr, %class.MemRegion, i64, ptr, ptr, ptr }
%class.MemRegion = type { ptr, i64 }
%class.GrowableArrayView = type { %class.GrowableArrayBase, ptr }
%class.GrowableArrayBase = type { i32, i32 }
%"class.MutableNUMASpace::LGRPSpace" = type { i32, ptr, ptr, i8, %"struct.MutableNUMASpace::LGRPSpace::SpaceStats" }
%"struct.MutableNUMASpace::LGRPSpace::SpaceStats" = type { i64, i64, i64, i64 }

; Function Attrs: mustprogress nounwind uwtable
define linkonce_odr hidden noundef i64 @_Z13pointer_deltaPVKvS0_m(ptr noundef %0, ptr noundef %1, i64 noundef %2) #1 comdat {
  %4 = alloca ptr, align 8
  %5 = alloca ptr, align 8
  %6 = alloca i64, align 8
  store ptr %0, ptr %4, align 8
  store ptr %1, ptr %5, align 8
  store i64 %2, ptr %6, align 8
  %7 = load ptr, ptr %4, align 8
  %8 = ptrtoint ptr %7 to i64
  %9 = load ptr, ptr %5, align 8
  %10 = ptrtoint ptr %9 to i64
  %11 = sub i64 %8, %10
  %12 = load i64, ptr %6, align 8
  %13 = udiv i64 %11, %12
  ret i64 %13
}

; Function Attrs: mustprogress nounwind uwtable
define linkonce_odr hidden noundef i32 @_ZNK17GrowableArrayBase6lengthEv(ptr noundef nonnull align 4 dereferenceable(8) %0) #1 comdat align 2 {
  %2 = alloca ptr, align 8
  store ptr %0, ptr %2, align 8
  %3 = load ptr, ptr %2, align 8
  %4 = getelementptr inbounds %class.GrowableArrayBase, ptr %3, i32 0, i32 0
  %5 = load i32, ptr %4, align 4
  ret i32 %5
}

; Function Attrs: mustprogress nounwind uwtable
define linkonce_odr hidden noundef ptr @_ZNK12MutableSpace3endEv(ptr noundef nonnull align 8 dereferenceable(56) %0) #1 comdat align 2 {
  %2 = alloca ptr, align 8
  store ptr %0, ptr %2, align 8
  %3 = load ptr, ptr %2, align 8
  %4 = getelementptr inbounds %class.MutableSpace, ptr %3, i32 0, i32 5
  %5 = load ptr, ptr %4, align 8
  ret ptr %5
}

; Function Attrs: mustprogress nounwind uwtable
define linkonce_odr hidden noundef ptr @_ZNK16MutableNUMASpace9LGRPSpace5spaceEv(ptr noundef nonnull align 8 dereferenceable(64) %0) #1 comdat align 2 {
  %2 = alloca ptr, align 8
  store ptr %0, ptr %2, align 8
  %3 = load ptr, ptr %2, align 8
  %4 = getelementptr inbounds %"class.MutableNUMASpace::LGRPSpace", ptr %3, i32 0, i32 1
  %5 = load ptr, ptr %4, align 8
  ret ptr %5
}

; Function Attrs: mustprogress nounwind uwtable
define linkonce_odr hidden noundef nonnull align 8 dereferenceable(8) ptr @_ZN17GrowableArrayViewIPN16MutableNUMASpace9LGRPSpaceEE2atEi(ptr noundef nonnull align 8 dereferenceable(16) %0, i32 noundef %1) #1 comdat align 2 {
  %3 = alloca ptr, align 8
  %4 = alloca i32, align 4
  store ptr %0, ptr %3, align 8
  store i32 %1, ptr %4, align 4
  %5 = load ptr, ptr %3, align 8
  %6 = getelementptr inbounds %class.GrowableArrayView, ptr %5, i32 0, i32 1
  %7 = load ptr, ptr %6, align 8
  %8 = load i32, ptr %4, align 4
  %9 = sext i32 %8 to i64
  %10 = getelementptr inbounds ptr, ptr %7, i64 %9
  ret ptr %10
}

; Function Attrs: mustprogress nounwind uwtable
define linkonce_odr hidden noundef ptr @_ZNK16MutableNUMASpace11lgrp_spacesEv(ptr noundef nonnull align 8 dereferenceable(96) %0) #1 comdat align 2 {
  %2 = alloca ptr, align 8
  store ptr %0, ptr %2, align 8
  %3 = load ptr, ptr %2, align 8
  %4 = getelementptr inbounds %class.MutableNUMASpace, ptr %3, i32 0, i32 1
  %5 = load ptr, ptr %4, align 8
  ret ptr %5
}

; Function Attrs: mustprogress nounwind uwtable
define linkonce_odr hidden noundef ptr @_ZNK12MutableSpace6bottomEv(ptr noundef nonnull align 8 dereferenceable(56) %0) #1 comdat align 2 {
  %2 = alloca ptr, align 8
  store ptr %0, ptr %2, align 8
  %3 = load ptr, ptr %2, align 8
  %4 = getelementptr inbounds %class.MutableSpace, ptr %3, i32 0, i32 3
  %5 = load ptr, ptr %4, align 8
  ret ptr %5
}

; Function Attrs: mustprogress nounwind uwtable
define hidden noundef i64 @_ZN16MutableNUMASpace18current_chunk_sizeEi(ptr noundef nonnull align 8 dereferenceable(96) %0, i32 noundef %1) #1 align 2 {
  %3 = alloca i64, align 8
  %4 = alloca ptr, align 8
  %5 = alloca i32, align 4
  %6 = alloca ptr, align 8
  %7 = alloca ptr, align 8
  store ptr %0, ptr %4, align 8
  store i32 %1, ptr %5, align 4
  %8 = load ptr, ptr %4, align 8
  %9 = load i32, ptr %5, align 4
  %10 = icmp eq i32 %9, 0
  br i1 %10, label %11, label %13

11:                                               ; preds = %2
  %12 = call noundef ptr @_ZNK12MutableSpace6bottomEv(ptr noundef nonnull align 8 dereferenceable(56) %8)
  store ptr %12, ptr %7, align 8
  br label %21

13:                                               ; preds = %2
  %14 = call noundef ptr @_ZNK16MutableNUMASpace11lgrp_spacesEv(ptr noundef nonnull align 8 dereferenceable(96) %8)
  %15 = load i32, ptr %5, align 4
  %16 = sub nsw i32 %15, 1
  %17 = call noundef nonnull align 8 dereferenceable(8) ptr @_ZN17GrowableArrayViewIPN16MutableNUMASpace9LGRPSpaceEE2atEi(ptr noundef nonnull align 8 dereferenceable(16) %14, i32 noundef %16)
  %18 = load ptr, ptr %17, align 8
  %19 = call noundef ptr @_ZNK16MutableNUMASpace9LGRPSpace5spaceEv(ptr noundef nonnull align 8 dereferenceable(64) %18)
  %20 = call noundef ptr @_ZNK12MutableSpace3endEv(ptr noundef nonnull align 8 dereferenceable(56) %19)
  store ptr %20, ptr %7, align 8
  br label %21

21:                                               ; preds = %13, %11
  %22 = load i32, ptr %5, align 4
  %23 = call noundef ptr @_ZNK16MutableNUMASpace11lgrp_spacesEv(ptr noundef nonnull align 8 dereferenceable(96) %8)
  %24 = call noundef i32 @_ZNK17GrowableArrayBase6lengthEv(ptr noundef nonnull align 4 dereferenceable(8) %23)
  %25 = sub nsw i32 %24, 1
  %26 = icmp eq i32 %22, %25
  br i1 %26, label %27, label %29

27:                                               ; preds = %21
  %28 = call noundef ptr @_ZNK12MutableSpace3endEv(ptr noundef nonnull align 8 dereferenceable(56) %8)
  store ptr %28, ptr %6, align 8
  br label %36

29:                                               ; preds = %21
  %30 = call noundef ptr @_ZNK16MutableNUMASpace11lgrp_spacesEv(ptr noundef nonnull align 8 dereferenceable(96) %8)
  %31 = load i32, ptr %5, align 4
  %32 = call noundef nonnull align 8 dereferenceable(8) ptr @_ZN17GrowableArrayViewIPN16MutableNUMASpace9LGRPSpaceEE2atEi(ptr noundef nonnull align 8 dereferenceable(16) %30, i32 noundef %31)
  %33 = load ptr, ptr %32, align 8
  %34 = call noundef ptr @_ZNK16MutableNUMASpace9LGRPSpace5spaceEv(ptr noundef nonnull align 8 dereferenceable(64) %33)
  %35 = call noundef ptr @_ZNK12MutableSpace3endEv(ptr noundef nonnull align 8 dereferenceable(56) %34)
  store ptr %35, ptr %6, align 8
  br label %36

36:                                               ; preds = %29, %27
  %37 = load ptr, ptr %6, align 8
  %38 = load ptr, ptr %7, align 8
  %39 = icmp ugt ptr %37, %38
  br i1 %39, label %40, label %44

40:                                               ; preds = %36
  %41 = load ptr, ptr %6, align 8
  %42 = load ptr, ptr %7, align 8
  %43 = call noundef i64 @_Z13pointer_deltaPVKvS0_m(ptr noundef %41, ptr noundef %42, i64 noundef 1)
  store i64 %43, ptr %3, align 8
  br label %45

44:                                               ; preds = %36
  store i64 0, ptr %3, align 8
  br label %45

45:                                               ; preds = %44, %40
  %46 = load i64, ptr %3, align 8
  ret i64 %46
}