; Function Attrs: mustprogress nofree norecurse nosync nounwind willreturn memory(read, inaccessiblemem: none) uwtable
define hidden noundef i64 @_ZN16MutableNUMASpace18current_chunk_sizeEi(ptr nocapture noundef nonnull readonly align 8 dereferenceable(96) %0, i32 noundef %1) local_unnamed_addr #3 align 2 {
  %3 = icmp eq i32 %1, 0
  br i1 %3, label %4, label %6

4:                                                ; preds = %2
  %5 = getelementptr inbounds i8, ptr %0, i64 32
  %.phi.trans.insert = getelementptr inbounds i8, ptr %0, i64 56
  %.pre = load ptr, ptr %.phi.trans.insert, align 8
  br label %18

6:                                                ; preds = %2
  %7 = getelementptr inbounds i8, ptr %0, i64 56
  %8 = load ptr, ptr %7, align 8
  %9 = getelementptr inbounds i8, ptr %8, i64 8
  %10 = load ptr, ptr %9, align 8
  %11 = sext i32 %1 to i64
  %12 = getelementptr ptr, ptr %10, i64 %11
  %13 = getelementptr i8, ptr %12, i64 -8
  %14 = load ptr, ptr %13, align 8
  %15 = getelementptr inbounds i8, ptr %14, i64 8
  %16 = load ptr, ptr %15, align 8
  %17 = getelementptr inbounds i8, ptr %16, i64 48
  br label %18

18:                                               ; preds = %6, %4
  %19 = phi ptr [ %.pre, %4 ], [ %8, %6 ]
  %.0.in = phi ptr [ %5, %4 ], [ %17, %6 ]
  %.0 = load ptr, ptr %.0.in, align 8
  %20 = load i32, ptr %19, align 4
  %21 = add nsw i32 %20, -1
  %22 = icmp eq i32 %21, %1
  br i1 %22, label %31, label %23

23:                                               ; preds = %18
  %24 = getelementptr inbounds i8, ptr %19, i64 8
  %25 = load ptr, ptr %24, align 8
  %26 = sext i32 %1 to i64
  %27 = getelementptr inbounds ptr, ptr %25, i64 %26
  %28 = load ptr, ptr %27, align 8
  %29 = getelementptr inbounds i8, ptr %28, i64 8
  %30 = load ptr, ptr %29, align 8
  br label %31

31:                                               ; preds = %18, %23
  %.pn = phi ptr [ %30, %23 ], [ %0, %18 ]
  %.09.in = getelementptr inbounds i8, ptr %.pn, i64 48
  %.09 = load ptr, ptr %.09.in, align 8
  %32 = icmp ugt ptr %.09, %.0
  %33 = ptrtoint ptr %.09 to i64
  %34 = ptrtoint ptr %.0 to i64
  %35 = sub i64 %33, %34
  %.010 = select i1 %32, i64 %35, i64 0
  ret i64 %.010
}